; Function Attrs: mustprogress uwtable
define void @_ZN10open_spiel9coin_game9CoinState24ApplyDeployPlayersActionEl(ptr noundef nonnull align 8 dereferenceable(288) %0, i64 noundef %1) local_unnamed_addr #3 align 2 personality ptr @__gxx_personality_v0 {
  %3 = alloca i64, align 8
  %4 = alloca i64, align 8
  %5 = alloca %"class.std::__cxx11::basic_string", align 8
  %6 = alloca i32, align 4
  %7 = alloca %"class.std::__cxx11::basic_string", align 8
  %8 = alloca i32, align 4
  %9 = alloca i32, align 4
  store i64 %1, ptr %3, align 8
  %10 = getelementptr inbounds nuw i8, ptr %0, i64 240
  %11 = getelementptr inbounds i8, ptr %0, i64 248
  %12 = load ptr, ptr %11, align 8
  %13 = load ptr, ptr %10, align 8
  %14 = ptrtoint ptr %12 to i64
  %15 = ptrtoint ptr %13 to i64
  %16 = sub i64 %14, %15
  store i64 %16, ptr %4, align 8
  %17 = icmp ult i64 %1, %16
  br i1 %17, label %22, label %18

18:                                               ; preds = %2
  store i32 256, ptr %6, align 4
  call void @_ZN10open_spiel8internal11SpielStrCatIJRA138_KcRA2_S2_iS6_RA22_S2_RA7_S2_RA4_S2_RlRA19_S2_RmEEENSt7__cxx1112basic_stringIcSt11char_traitsIcESaIcEEEDpOT_(ptr dead_on_unwind nonnull writable sret(%"class.std::__cxx11::basic_string") align 8 %5, ptr noundef nonnull align 1 dereferenceable(138) @.str.14, ptr noundef nonnull align 1 dereferenceable(2) @.str.15, ptr noundef nonnull align 4 dereferenceable(4) %6, ptr noundef nonnull align 1 dereferenceable(2) @.str.16, ptr noundef nonnull align 1 dereferenceable(22) @.str.27, ptr noundef nonnull align 1 dereferenceable(7) @.str.28, ptr noundef nonnull align 1 dereferenceable(4) @.str.19, ptr noundef nonnull align 8 dereferenceable(8) %3, ptr noundef nonnull align 1 dereferenceable(19) @.str.29, ptr noundef nonnull align 8 dereferenceable(8) %4)
  invoke void @_ZN10open_spiel15SpielFatalErrorERKNSt7__cxx1112basic_stringIcSt11char_traitsIcESaIcEEE(ptr noundef nonnull align 8 dereferenceable(32) %5) #25
          to label %19 unwind label %20

19:                                               ; preds = %18
  unreachable

20:                                               ; preds = %18
  %21 = landingpad { ptr, i32 }
          cleanup
  br label %54

22:                                               ; preds = %2
  %23 = getelementptr inbounds i8, ptr %13, i64 %1
  %24 = load i8, ptr %23, align 1
  %25 = tail call fastcc noundef i32 @_ZN10open_spiel9coin_game12_GLOBAL__N_113GetSymbolTypeEc(i8 noundef signext %24)
  %.not = icmp eq i32 %25, 0
  br i1 %.not, label %30, label %26

26:                                               ; preds = %22
  store i32 257, ptr %8, align 4
  call void @_ZN10open_spiel8internal11SpielStrCatIJRA138_KcRA2_S2_iRA13_S2_RA51_S2_S6_EEENSt7__cxx1112basic_stringIcSt11char_traitsIcESaIcEEEDpOT_(ptr dead_on_unwind nonnull writable sret(%"class.std::__cxx11::basic_string") align 8 %7, ptr noundef nonnull align 1 dereferenceable(138) @.str.14, ptr noundef nonnull align 1 dereferenceable(2) @.str.15, ptr noundef nonnull align 4 dereferenceable(4) %8, ptr noundef nonnull align 1 dereferenceable(13) @.str.30, ptr noundef nonnull align 1 dereferenceable(51) @.str.31, ptr noundef nonnull align 1 dereferenceable(2) @.str.32)
  invoke void @_ZN10open_spiel15SpielFatalErrorERKNSt7__cxx1112basic_stringIcSt11char_traitsIcESaIcEEE(ptr noundef nonnull align 8 dereferenceable(32) %7) #25
          to label %27 unwind label %28

27:                                               ; preds = %26
  unreachable

28:                                               ; preds = %26
  %29 = landingpad { ptr, i32 }
          cleanup
  br label %54

30:                                               ; preds = %22
  %31 = getelementptr inbounds i8, ptr %0, i64 172
  %32 = load i32, ptr %31, align 4
  %33 = trunc i32 %32 to i8
  %34 = add i8 %33, 48
  %35 = load ptr, ptr %10, align 8
  %36 = getelementptr inbounds i8, ptr %35, i64 %1
  store i8 %34, ptr %36, align 1
  %37 = trunc i64 %1 to i32
  %38 = getelementptr inbounds nuw i8, ptr %0, i64 64
  %39 = load ptr, ptr %38, align 8
  %40 = getelementptr inbounds nuw i8, ptr %39, i64 288
  %41 = load i32, ptr %40, align 8
  %42 = sdiv i32 %37, %41
  %43 = srem i32 %37, %41
  %44 = getelementptr inbounds nuw i8, ptr %0, i64 216
  %45 = load i32, ptr %31, align 4
  %46 = sext i32 %45 to i64
  %47 = load ptr, ptr %44, align 8
  %48 = getelementptr inbounds %"struct.std::pair.31", ptr %47, i64 %46
  store i32 %42, ptr %48, align 4
  %49 = getelementptr inbounds nuw i8, ptr %48, i64 4
  store i32 %43, ptr %49, align 4
  %50 = load i32, ptr %31, align 4
  %51 = add nsw i32 %50, 1
  store i32 %51, ptr %31, align 4
  %52 = getelementptr inbounds i8, ptr %0, i64 120
  store i32 %37, ptr %9, align 4
  %53 = call noundef i64 @_ZNSt8_Rb_treeIiiSt9_IdentityIiESt4lessIiESaIiEE5eraseERKi(ptr noundef nonnull align 8 dereferenceable(48) %52, ptr noundef nonnull align 4 dereferenceable(4) %9)
  ret void

54:                                               ; preds = %28, %20
  %.sink = phi ptr [ %7, %28 ], [ %5, %20 ]
  %.pn = phi { ptr, i32 } [ %29, %28 ], [ %21, %20 ]
  call void @_ZNSt7__cxx1112basic_stringIcSt11char_traitsIcESaIcEED1Ev(ptr noundef nonnull align 8 dereferenceable(32) %.sink) #26
  resume { ptr, i32 } %.pn
}